target datalayout = "e-m:e-p270:32:32-p271:32:32-p272:64:64-i64:64-i128:128-f80:128-n8:16:32:64-S128"
target triple = "x86_64-pc-linux-gnu"

%struct.timeval = type { i64, i64 }

; Function Attrs: nounwind uwtable
define dso_local i64 @feGetCurrentTimestamp() #0 {
  %1 = alloca i64, align 8
  %2 = alloca %struct.timeval, align 8
  call void @llvm.lifetime.start.p0(i64 8, ptr %1) #9
  call void @llvm.lifetime.start.p0(i64 16, ptr %2) #9
  %3 = call i32 @gettimeofday(ptr noundef %2, ptr noundef null) #9
  %4 = getelementptr inbounds nuw %struct.timeval, ptr %2, i32 0, i32 0
  %5 = load i64, ptr %4, align 8
  %6 = sub i64 %5, 946684800
  store i64 %6, ptr %1, align 8
  %7 = load i64, ptr %1, align 8
  %8 = mul i64 %7, 1000000
  %9 = getelementptr inbounds nuw %struct.timeval, ptr %2, i32 0, i32 1
  %10 = load i64, ptr %9, align 8
  %11 = add i64 %8, %10
  store i64 %11, ptr %1, align 8
  %12 = load i64, ptr %1, align 8
  call void @llvm.lifetime.end.p0(i64 16, ptr %2) #9
  call void @llvm.lifetime.end.p0(i64 8, ptr %1) #9
  ret i64 %12
}