; Function Attrs: nofree nounwind uwtable
define dso_local i64 @feGetCurrentTimestamp() local_unnamed_addr #7 {
  %1 = alloca %struct.timeval, align 8
  call void @llvm.lifetime.start.p0(i64 16, ptr nonnull %1) #15
  %2 = call i32 @gettimeofday(ptr noundef nonnull %1, ptr noundef null) #15
  %3 = load i64, ptr %1, align 8
  %4 = mul i64 %3, 1000000
  %5 = add i64 %4, -946684800000000
  %6 = getelementptr inbounds nuw i8, ptr %1, i64 8
  %7 = load i64, ptr %6, align 8
  %8 = add i64 %5, %7
  call void @llvm.lifetime.end.p0(i64 16, ptr nonnull %1) #15
  ret i64 %8
}